target datalayout = "e-m:e-p270:32:32-p271:32:32-p272:64:64-i64:64-i128:128-f80:128-n8:16:32:64-S128"
target triple = "x86_64-pc-linux-gnu"

%struct._session_keys_t = type { ptr, ptr, ptr, i32, ptr, ptr }

; Function Attrs: null_pointer_is_valid sspstrong uwtable
define internal void @session_keys_free_cb(ptr noundef %0) #0 {
  %2 = alloca ptr, align 8
  %3 = alloca ptr, align 8
  store ptr %0, ptr %2, align 8
  call void @llvm.lifetime.start.p0(i64 8, ptr %3) #10
  %4 = load ptr, ptr %2, align 8
  store ptr %4, ptr %3, align 8
  %5 = load ptr, ptr %3, align 8
  %6 = getelementptr inbounds nuw %struct._session_keys_t, ptr %5, i32 0, i32 0
  %7 = load ptr, ptr %6, align 8
  call void @g_free(ptr noundef %7)
  %8 = load ptr, ptr %3, align 8
  %9 = getelementptr inbounds nuw %struct._session_keys_t, ptr %8, i32 0, i32 1
  %10 = load ptr, ptr %9, align 8
  call void @g_free(ptr noundef %10)
  %11 = load ptr, ptr %3, align 8
  %12 = getelementptr inbounds nuw %struct._session_keys_t, ptr %11, i32 0, i32 4
  %13 = load ptr, ptr %12, align 8
  %14 = call ptr @g_byte_array_free(ptr noundef %13, i32 noundef 1)
  %15 = load ptr, ptr %3, align 8
  %16 = getelementptr inbounds nuw %struct._session_keys_t, ptr %15, i32 0, i32 2
  %17 = load ptr, ptr %16, align 8
  call void @g_free(ptr noundef %17)
  %18 = load ptr, ptr %3, align 8
  %19 = getelementptr inbounds nuw %struct._session_keys_t, ptr %18, i32 0, i32 5
  %20 = load ptr, ptr %19, align 8
  %21 = call ptr @g_byte_array_free(ptr noundef %20, i32 noundef 1)
  call void @llvm.lifetime.end.p0(i64 8, ptr %3) #10
  ret void
}